Allocating common symbols
Common symbol       size              file

AA_state            0x4               Alarm_Actuator_Driver.o
AM_state_id         0x1               Alarm_Monitor.o
AM_state            0x4               Alarm_Monitor.o
AA_state_id         0x1               Alarm_Actuator_Driver.o
MA_state            0x4               Main_Alg.o
PS_state            0x4               Pressure_Sensor_Val_Driver.o
MA_state_id         0x1               main.o
PS_state_id         0x1               main.o

Memory Configuration

Name             Origin             Length             Attributes
flash            0x08000000         0x00020000         xr
sram             0x20000000         0x00005000         xrw
*default*        0x00000000         0xffffffff

Linker script and memory map


.text           0x08000000      0x448
 *(.vectors*)
 .vectors       0x08000000       0x1c startup.o
                0x08000000                Vectors
 *(.text*)
 .text          0x0800001c       0xc0 Alarm_Actuator_Driver.o
                0x0800001c                Start_Alarm
                0x0800003c                Stop_Alarm
                0x0800005c                AA_init
                0x08000068                PS_AA_Waiting
                0x08000084                PS_AA_Alarm_ON
                0x080000b0                PS_AA_Alarm_OFF
 .text          0x080000dc       0x74 Alarm_Monitor.o
                0x080000dc                High_Pressure_Detected
                0x080000f8                PS_AM_Alarm_ON
                0x08000138                PS_AM_Alarm_OFF
 .text          0x08000150      0x10c driver.o
                0x08000150                Delay
                0x08000174                getPressureVal
                0x0800018c                Set_Alarm_actuator
                0x080001dc                GPIO_INITIALIZATION
 .text          0x0800025c       0xa0 main.o
                0x0800025c                Setup
                0x080002b8                main
 .text          0x080002fc       0x50 Main_Alg.o
                0x080002fc                Set_Pressure
                0x08000334                PS_Pressure_Val_Detection
 .text          0x0800034c       0x40 Pressure_Sensor_Val_Driver.o
                0x0800034c                PS_init
                0x08000358                PS_PS_reading
 .text          0x0800038c       0xbc startup.o
                0x0800038c                NMI_Handler
                0x0800038c                H_Fault_Handler
                0x0800038c                NM_Falult_Handler
                0x0800038c                Default_Handler
                0x0800038c                Bus_Falult
                0x0800038c                Usage_Falult_Handler
                0x08000398                Reset_Handler
 *(.rodata*)
                0x08000448                _E_Text = .

.glue_7         0x08000448        0x0
 .glue_7        0x00000000        0x0 linker stubs

.glue_7t        0x08000448        0x0
 .glue_7t       0x00000000        0x0 linker stubs

.vfp11_veneer   0x08000448        0x0
 .vfp11_veneer  0x00000000        0x0 linker stubs

.v4_bx          0x08000448        0x0
 .v4_bx         0x00000000        0x0 linker stubs

.iplt           0x08000448        0x0
 .iplt          0x00000000        0x0 Alarm_Actuator_Driver.o

.rel.dyn        0x08000448        0x0
 .rel.iplt      0x00000000        0x0 Alarm_Actuator_Driver.o

.data           0x20000000        0x8 load address 0x08000448
                0x20000000                _S_DATA = .
 *(.data)
 .data          0x20000000        0x0 Alarm_Actuator_Driver.o
 .data          0x20000000        0x4 Alarm_Monitor.o
                0x20000000                Alarm_Periode
 .data          0x20000004        0x0 driver.o
 .data          0x20000004        0x0 main.o
 .data          0x20000004        0x4 Main_Alg.o
                0x20000004                Threshold
 .data          0x20000008        0x0 Pressure_Sensor_Val_Driver.o
 .data          0x20000008        0x0 startup.o
                0x20000008                . = ALIGN (0x4)
                0x20000008                _E_DATA = .

.igot.plt       0x20000008        0x0 load address 0x08000450
 .igot.plt      0x00000000        0x0 Alarm_Actuator_Driver.o

.bss            0x20000008     0x1024 load address 0x08000450
                0x20000008                _S_bss = .
 *(.bss*)
 .bss           0x20000008        0x0 Alarm_Actuator_Driver.o
 .bss           0x20000008        0x0 Alarm_Monitor.o
 .bss           0x20000008        0x0 driver.o
 .bss           0x20000008        0x0 main.o
 .bss           0x20000008        0x4 Main_Alg.o
                0x20000008                MA_PVal
 .bss           0x2000000c        0x4 Pressure_Sensor_Val_Driver.o
                0x2000000c                PVal
 .bss           0x20000010        0x0 startup.o
                0x20000010                _E_bss = .
                0x20000010                . = ALIGN (0x4)
                0x20001010                . = (. + 0x1000)
 *fill*         0x20000010     0x1000 
                0x20001010                _stack_top = .
 COMMON         0x20001010        0x5 Alarm_Actuator_Driver.o
                0x20001010                AA_state
                0x20001014                AA_state_id
 *fill*         0x20001015        0x3 
 COMMON         0x20001018        0x8 Alarm_Monitor.o
                0x20001018                AM_state_id
                0x2000101c                AM_state
 COMMON         0x20001020        0x2 main.o
                0x20001020                MA_state_id
                0x20001021                PS_state_id
 *fill*         0x20001022        0x2 
 COMMON         0x20001024        0x4 Main_Alg.o
                0x20001024                MA_state
 COMMON         0x20001028        0x4 Pressure_Sensor_Val_Driver.o
                0x20001028                PS_state
LOAD Alarm_Actuator_Driver.o
LOAD Alarm_Monitor.o
LOAD driver.o
LOAD main.o
LOAD Main_Alg.o
LOAD Pressure_Sensor_Val_Driver.o
LOAD startup.o
OUTPUT(learn-in-depth-First_Term_Project1.elf elf32-littlearm)

.debug_info     0x00000000      0x871
 .debug_info    0x00000000      0x144 Alarm_Actuator_Driver.o
 .debug_info    0x00000144      0x11f Alarm_Monitor.o
 .debug_info    0x00000263      0x103 driver.o
 .debug_info    0x00000366      0x191 main.o
 .debug_info    0x000004f7      0x11c Main_Alg.o
 .debug_info    0x00000613       0xf6 Pressure_Sensor_Val_Driver.o
 .debug_info    0x00000709      0x168 startup.o

.debug_abbrev   0x00000000      0x484
 .debug_abbrev  0x00000000       0x92 Alarm_Actuator_Driver.o
 .debug_abbrev  0x00000092       0xa1 Alarm_Monitor.o
 .debug_abbrev  0x00000133       0x9d driver.o
 .debug_abbrev  0x000001d0       0xbb main.o
 .debug_abbrev  0x0000028b       0xa5 Main_Alg.o
 .debug_abbrev  0x00000330       0x92 Pressure_Sensor_Val_Driver.o
 .debug_abbrev  0x000003c2       0xc2 startup.o

.debug_loc      0x00000000      0x3d8
 .debug_loc     0x00000000      0x108 Alarm_Actuator_Driver.o
 .debug_loc     0x00000108       0x84 Alarm_Monitor.o
 .debug_loc     0x0000018c       0xc8 driver.o
 .debug_loc     0x00000254       0x64 main.o
 .debug_loc     0x000002b8       0x64 Main_Alg.o
 .debug_loc     0x0000031c       0x58 Pressure_Sensor_Val_Driver.o
 .debug_loc     0x00000374       0x64 startup.o

.debug_aranges  0x00000000       0xe0
 .debug_aranges
                0x00000000       0x20 Alarm_Actuator_Driver.o
 .debug_aranges
                0x00000020       0x20 Alarm_Monitor.o
 .debug_aranges
                0x00000040       0x20 driver.o
 .debug_aranges
                0x00000060       0x20 main.o
 .debug_aranges
                0x00000080       0x20 Main_Alg.o
 .debug_aranges
                0x000000a0       0x20 Pressure_Sensor_Val_Driver.o
 .debug_aranges
                0x000000c0       0x20 startup.o

.debug_line     0x00000000      0x395
 .debug_line    0x00000000       0x75 Alarm_Actuator_Driver.o
 .debug_line    0x00000075       0x5e Alarm_Monitor.o
 .debug_line    0x000000d3       0x99 driver.o
 .debug_line    0x0000016c       0xb8 main.o
 .debug_line    0x00000224       0x51 Main_Alg.o
 .debug_line    0x00000275       0x72 Pressure_Sensor_Val_Driver.o
 .debug_line    0x000002e7       0xae startup.o

.debug_str      0x00000000      0x309
 .debug_str     0x00000000      0x111 Alarm_Actuator_Driver.o
                                0x16e (size before relaxing)
 .debug_str     0x00000111       0x69 Alarm_Monitor.o
                                0x153 (size before relaxing)
 .debug_str     0x0000017a       0x55 driver.o
                                0x126 (size before relaxing)
 .debug_str     0x000001cf       0x3c main.o
                                0x196 (size before relaxing)
 .debug_str     0x0000020b       0x4b Main_Alg.o
                                0x148 (size before relaxing)
 .debug_str     0x00000256       0x33 Pressure_Sensor_Val_Driver.o
                                0x129 (size before relaxing)
 .debug_str     0x00000289       0x80 startup.o
                                0x155 (size before relaxing)

.comment        0x00000000       0x11
 .comment       0x00000000       0x11 Alarm_Actuator_Driver.o
                                 0x12 (size before relaxing)
 .comment       0x00000000       0x12 Alarm_Monitor.o
 .comment       0x00000000       0x12 driver.o
 .comment       0x00000000       0x12 main.o
 .comment       0x00000000       0x12 Main_Alg.o
 .comment       0x00000000       0x12 Pressure_Sensor_Val_Driver.o
 .comment       0x00000000       0x12 startup.o

.ARM.attributes
                0x00000000       0x33
 .ARM.attributes
                0x00000000       0x33 Alarm_Actuator_Driver.o
 .ARM.attributes
                0x00000033       0x33 Alarm_Monitor.o
 .ARM.attributes
                0x00000066       0x33 driver.o
 .ARM.attributes
                0x00000099       0x33 main.o
 .ARM.attributes
                0x000000cc       0x33 Main_Alg.o
 .ARM.attributes
                0x000000ff       0x33 Pressure_Sensor_Val_Driver.o
 .ARM.attributes
                0x00000132       0x33 startup.o

.debug_frame    0x00000000      0x2a4
 .debug_frame   0x00000000       0xac Alarm_Actuator_Driver.o
 .debug_frame   0x000000ac       0x5c Alarm_Monitor.o
 .debug_frame   0x00000108       0x78 driver.o
 .debug_frame   0x00000180       0x4c main.o
 .debug_frame   0x000001cc       0x48 Main_Alg.o
 .debug_frame   0x00000214       0x44 Pressure_Sensor_Val_Driver.o
 .debug_frame   0x00000258       0x4c startup.o
